; Function Attrs: mustprogress nofree norecurse nosync nounwind willreturn memory(argmem: write) uwtable
define noundef i32 @_ZN3zmq12v2_decoder_t13message_readyEPKh(ptr noundef nonnull align 8 dereferenceable(184) %0, ptr readnone captures(none) %1) #10 align 2 {
  %3 = getelementptr inbounds nuw i8, ptr %0, i64 88
  %4 = getelementptr inbounds nuw i8, ptr %0, i64 24
  store ptr %3, ptr %4, align 8, !tbaa !26
  %5 = getelementptr inbounds nuw i8, ptr %0, i64 32
  store i64 1, ptr %5, align 8, !tbaa !27
  %6 = getelementptr inbounds nuw i8, ptr %0, i64 8
  store i64 ptrtoint (ptr @_ZN3zmq12v2_decoder_t11flags_readyEPKh to i64), ptr %6, align 8, !tbaa !28
  %.repack8.i = getelementptr inbounds nuw i8, ptr %0, i64 16
  store i64 0, ptr %.repack8.i, align 8, !tbaa !28
  ret i32 1
}